target datalayout = "e-m:e-p270:32:32-p271:32:32-p272:64:64-i64:64-i128:128-f80:128-n8:16:32:64-S128"
target triple = "x86_64-pc-linux-gnu"

@Log_truncate_on_rotation = dso_local global i8 0, align 1
@.str.1 = private unnamed_addr constant [5 x i8] c".csv\00", align 1
@.str.2 = private unnamed_addr constant [6 x i8] c".json\00", align 1
@Log_destination = external global i32, align 4
@rotation_disabled = internal global i8 0, align 1
@.str.4 = private unnamed_addr constant [12 x i8] c"syslogger.c\00", align 1
@.str.7 = private unnamed_addr constant [2 x i8] c"a\00", align 1
@.str.16 = private unnamed_addr constant [2 x i8] c"w\00", align 1
@.str.17 = private unnamed_addr constant [55 x i8] c"disabling automatic rotation (use SIGHUP to re-enable)\00", align 1
@__func__.logfile_rotate_dest = private unnamed_addr constant [20 x i8] c"logfile_rotate_dest\00", align 1

; Function Attrs: nounwind uwtable
define internal zeroext i1 @logfile_rotate_dest(i1 noundef zeroext %0, i32 noundef %1, i64 noundef %2, i32 noundef %3, ptr noundef %4, ptr noundef %5) #4 {
  %7 = alloca i1, align 1
  %8 = alloca i8, align 1
  %9 = alloca i32, align 4
  %10 = alloca i64, align 8
  %11 = alloca i32, align 4
  %12 = alloca ptr, align 8
  %13 = alloca ptr, align 8
  %14 = alloca ptr, align 8
  %15 = alloca ptr, align 8
  %16 = alloca ptr, align 8
  %17 = alloca i32, align 4
  %18 = zext i1 %0 to i8
  store i8 %18, ptr %8, align 1
  store i32 %1, ptr %9, align 4
  store i64 %2, ptr %10, align 8
  store i32 %3, ptr %11, align 4
  store ptr %4, ptr %12, align 8
  store ptr %5, ptr %13, align 8
  call void @llvm.lifetime.start.p0(i64 8, ptr %14) #12
  store ptr null, ptr %14, align 8
  call void @llvm.lifetime.start.p0(i64 8, ptr %15) #12
  call void @llvm.lifetime.start.p0(i64 8, ptr %16) #12
  %19 = load i32, ptr @Log_destination, align 4
  %20 = load i32, ptr %11, align 4
  %21 = and i32 %19, %20
  %22 = icmp eq i32 %21, 0
  br i1 %22, label %23, label %44

23:                                               ; preds = %6
  %24 = load i32, ptr %11, align 4
  %25 = icmp ne i32 %24, 1
  br i1 %25, label %26, label %44

26:                                               ; preds = %23
  %27 = load ptr, ptr %13, align 8
  %28 = load ptr, ptr %27, align 8
  %29 = icmp ne ptr %28, null
  br i1 %29, label %30, label %34

30:                                               ; preds = %26
  %31 = load ptr, ptr %13, align 8
  %32 = load ptr, ptr %31, align 8
  %33 = call i32 @fclose(ptr noundef %32)
  br label %34

34:                                               ; preds = %30, %26
  %35 = load ptr, ptr %13, align 8
  store ptr null, ptr %35, align 8
  %36 = load ptr, ptr %12, align 8
  %37 = load ptr, ptr %36, align 8
  %38 = icmp ne ptr %37, null
  br i1 %38, label %39, label %42

39:                                               ; preds = %34
  %40 = load ptr, ptr %12, align 8
  %41 = load ptr, ptr %40, align 8
  call void @pfree(ptr noundef %41)
  br label %42

42:                                               ; preds = %39, %34
  %43 = load ptr, ptr %12, align 8
  store ptr null, ptr %43, align 8
  store i1 true, ptr %7, align 1
  store i32 1, ptr %17, align 4
  br label %141

44:                                               ; preds = %23, %6
  %45 = load i8, ptr %8, align 1, !range !4, !noundef !5
  %46 = trunc i8 %45 to i1
  br i1 %46, label %53, label %47

47:                                               ; preds = %44
  %48 = load i32, ptr %9, align 4
  %49 = load i32, ptr %11, align 4
  %50 = and i32 %48, %49
  %51 = icmp eq i32 %50, 0
  br i1 %51, label %52, label %53

52:                                               ; preds = %47
  store i1 true, ptr %7, align 1
  store i32 1, ptr %17, align 4
  br label %141

53:                                               ; preds = %47, %44
  %54 = load i32, ptr %11, align 4
  %55 = icmp eq i32 %54, 1
  br i1 %55, label %56, label %57

56:                                               ; preds = %53
  store ptr null, ptr %14, align 8
  br label %68

57:                                               ; preds = %53
  %58 = load i32, ptr %11, align 4
  %59 = icmp eq i32 %58, 8
  br i1 %59, label %60, label %61

60:                                               ; preds = %57
  store ptr @.str.1, ptr %14, align 8
  br label %67

61:                                               ; preds = %57
  %62 = load i32, ptr %11, align 4
  %63 = icmp eq i32 %62, 16
  br i1 %63, label %64, label %65

64:                                               ; preds = %61
  store ptr @.str.2, ptr %14, align 8
  br label %66

65:                                               ; preds = %61
  br label %66

66:                                               ; preds = %65, %64
  br label %67

67:                                               ; preds = %66, %60
  br label %68

68:                                               ; preds = %67, %56
  %69 = load i64, ptr %10, align 8
  %70 = load ptr, ptr %14, align 8
  %71 = call ptr @logfile_getname(i64 noundef %69, ptr noundef %70)
  store ptr %71, ptr %15, align 8
  %72 = load i8, ptr @Log_truncate_on_rotation, align 1, !range !4, !noundef !5
  %73 = trunc i8 %72 to i1
  br i1 %73, label %74, label %90

74:                                               ; preds = %68
  %75 = load i8, ptr %8, align 1, !range !4, !noundef !5
  %76 = trunc i8 %75 to i1
  br i1 %76, label %77, label %90

77:                                               ; preds = %74
  %78 = load ptr, ptr %12, align 8
  %79 = load ptr, ptr %78, align 8
  %80 = icmp ne ptr %79, null
  br i1 %80, label %81, label %90

81:                                               ; preds = %77
  %82 = load ptr, ptr %15, align 8
  %83 = load ptr, ptr %12, align 8
  %84 = load ptr, ptr %83, align 8
  %85 = call i32 @strcmp(ptr noundef %82, ptr noundef %84) #13
  %86 = icmp ne i32 %85, 0
  br i1 %86, label %87, label %90

87:                                               ; preds = %81
  %88 = load ptr, ptr %15, align 8
  %89 = call ptr @logfile_open(ptr noundef %88, ptr noundef @.str.16, i1 noundef zeroext true)
  store ptr %89, ptr %16, align 8
  br label %93

90:                                               ; preds = %81, %77, %74, %68
  %91 = load ptr, ptr %15, align 8
  %92 = call ptr @logfile_open(ptr noundef %91, ptr noundef @.str.7, i1 noundef zeroext true)
  store ptr %92, ptr %16, align 8
  br label %93

93:                                               ; preds = %90, %87
  %94 = load ptr, ptr %16, align 8
  %95 = icmp ne ptr %94, null
  br i1 %95, label %121, label %96

96:                                               ; preds = %93
  %97 = call ptr @__errno_location() #14
  %98 = load i32, ptr %97, align 4
  %99 = icmp ne i32 %98, 23
  br i1 %99, label %100, label %115

100:                                              ; preds = %96
  %101 = call ptr @__errno_location() #14
  %102 = load i32, ptr %101, align 4
  %103 = icmp ne i32 %102, 24
  br i1 %103, label %104, label %115

104:                                              ; preds = %100
  br label %105

105:                                              ; preds = %104
  br i1 false, label %106, label %108

106:                                              ; preds = %105
  %107 = call zeroext i1 @errstart_cold(i32 noundef 15, ptr noundef null) #15
  br i1 %107, label %110, label %112

108:                                              ; preds = %105
  %109 = call zeroext i1 @errstart(i32 noundef 15, ptr noundef null)
  br i1 %109, label %110, label %112

110:                                              ; preds = %108, %106
  %111 = call i32 (ptr, ...) @errmsg(ptr noundef @.str.17)
  call void @errfinish(ptr noundef @.str.4, i32 noundef 1337, ptr noundef @__func__.logfile_rotate_dest)
  br label %112

112:                                              ; preds = %110, %108, %106
  br label %113

113:                                              ; preds = %112
  br label %114

114:                                              ; preds = %113
  store i8 1, ptr @rotation_disabled, align 1
  br label %115

115:                                              ; preds = %114, %100, %96
  %116 = load ptr, ptr %15, align 8
  %117 = icmp ne ptr %116, null
  br i1 %117, label %118, label %120

118:                                              ; preds = %115
  %119 = load ptr, ptr %15, align 8
  call void @pfree(ptr noundef %119)
  br label %120

120:                                              ; preds = %118, %115
  store i1 false, ptr %7, align 1
  store i32 1, ptr %17, align 4
  br label %141

121:                                              ; preds = %93
  %122 = load ptr, ptr %13, align 8
  %123 = load ptr, ptr %122, align 8
  %124 = icmp ne ptr %123, null
  br i1 %124, label %125, label %129

125:                                              ; preds = %121
  %126 = load ptr, ptr %13, align 8
  %127 = load ptr, ptr %126, align 8
  %128 = call i32 @fclose(ptr noundef %127)
  br label %129

129:                                              ; preds = %125, %121
  %130 = load ptr, ptr %16, align 8
  %131 = load ptr, ptr %13, align 8
  store ptr %130, ptr %131, align 8
  %132 = load ptr, ptr %12, align 8
  %133 = load ptr, ptr %132, align 8
  %134 = icmp ne ptr %133, null
  br i1 %134, label %135, label %138

135:                                              ; preds = %129
  %136 = load ptr, ptr %12, align 8
  %137 = load ptr, ptr %136, align 8
  call void @pfree(ptr noundef %137)
  br label %138

138:                                              ; preds = %135, %129
  %139 = load ptr, ptr %15, align 8
  %140 = load ptr, ptr %12, align 8
  store ptr %139, ptr %140, align 8
  store i1 true, ptr %7, align 1
  store i32 1, ptr %17, align 4
  br label %141

141:                                              ; preds = %138, %120, %52, %42
  call void @llvm.lifetime.end.p0(i64 8, ptr %16) #12
  call void @llvm.lifetime.end.p0(i64 8, ptr %15) #12
  call void @llvm.lifetime.end.p0(i64 8, ptr %14) #12
  %142 = load i1, ptr %7, align 1
  ret i1 %142
}