; Function Attrs: nounwind uwtable
define internal fastcc noundef zeroext i1 @logfile_rotate_dest(i1 noundef zeroext %0, i32 noundef range(i32 0, 32) %1, i64 noundef %2, i32 noundef range(i32 1, 17) %3, ptr noundef captures(none) %4, ptr noundef captures(none) %5) unnamed_addr #5 {
  %7 = load i32, ptr @Log_destination, align 4
  %8 = and i32 %7, %3
  %9 = icmp eq i32 %8, 0
  %10 = icmp ne i32 %3, 1
  %or.cond = and i1 %10, %9
  br i1 %or.cond, label %11, label %19

11:                                               ; preds = %6
  %12 = load ptr, ptr %5, align 8
  %.not51 = icmp eq ptr %12, null
  br i1 %.not51, label %15, label %13

13:                                               ; preds = %11
  %14 = tail call i32 @fclose(ptr noundef nonnull %12)
  br label %15

15:                                               ; preds = %13, %11
  store ptr null, ptr %5, align 8
  %16 = load ptr, ptr %4, align 8
  %.not52 = icmp eq ptr %16, null
  br i1 %.not52, label %18, label %17

17:                                               ; preds = %15
  tail call void @pfree(ptr noundef nonnull %16) #15
  br label %18

18:                                               ; preds = %17, %15
  store ptr null, ptr %4, align 8
  br label %51

19:                                               ; preds = %6
  %20 = and i32 %3, %1
  %21 = icmp ne i32 %20, 0
  %or.cond55.not = or i1 %0, %21
  br i1 %or.cond55.not, label %22, label %51

22:                                               ; preds = %19
  %switch.selectcmp = icmp eq i32 %3, 8
  %switch.select = select i1 %switch.selectcmp, ptr @.str.1, ptr null
  %switch.selectcmp58 = icmp eq i32 %3, 16
  %switch.select59 = select i1 %switch.selectcmp58, ptr @.str.2, ptr %switch.select
  %23 = tail call fastcc ptr @logfile_getname(i64 noundef %2, ptr noundef %switch.select59)
  %24 = load i8, ptr @Log_truncate_on_rotation, align 1, !range !4, !noundef !5
  %25 = trunc nuw i8 %24 to i1
  %brmerge.demorgan = and i1 %0, %25
  br i1 %brmerge.demorgan, label %26, label %30

26:                                               ; preds = %22
  %27 = load ptr, ptr %4, align 8
  %.not = icmp eq ptr %27, null
  br i1 %.not, label %30, label %28

28:                                               ; preds = %26
  %29 = tail call i32 @strcmp(ptr noundef nonnull dereferenceable(1) %23, ptr noundef nonnull dereferenceable(1) %27) #16
  %.not44 = icmp eq i32 %29, 0
  br i1 %.not44, label %30, label %31

30:                                               ; preds = %22, %28, %26
  br label %31

31:                                               ; preds = %28, %30
  %.str.7.sink = phi ptr [ @.str.7, %30 ], [ @.str.16, %28 ]
  %32 = tail call fastcc ptr @logfile_open(ptr noundef %23, ptr noundef nonnull %.str.7.sink, i1 noundef zeroext true)
  %.not45 = icmp eq ptr %32, null
  br i1 %.not45, label %33, label %43

33:                                               ; preds = %31
  %34 = tail call ptr @__errno_location() #17
  %35 = load i32, ptr %34, align 4
  %.off = add i32 %35, -23
  %switch = icmp ult i32 %.off, 2
  br i1 %switch, label %41, label %36

36:                                               ; preds = %33
  %37 = tail call zeroext i1 @errstart(i32 noundef 15, ptr noundef null) #15
  br i1 %37, label %38, label %40

38:                                               ; preds = %36
  %39 = tail call i32 (ptr, ...) @errmsg(ptr noundef nonnull @.str.17) #15
  tail call void @errfinish(ptr noundef nonnull @.str.4, i32 noundef 1337, ptr noundef nonnull @__func__.logfile_rotate_dest) #15
  br label %40

40:                                               ; preds = %38, %36
  store i1 true, ptr @rotation_disabled, align 1
  br label %41

41:                                               ; preds = %33, %40
  %.not48 = icmp eq ptr %23, null
  br i1 %.not48, label %51, label %42

42:                                               ; preds = %41
  tail call void @pfree(ptr noundef nonnull %23) #15
  br label %51

43:                                               ; preds = %31
  %44 = load ptr, ptr %5, align 8
  %.not49 = icmp eq ptr %44, null
  br i1 %.not49, label %47, label %45

45:                                               ; preds = %43
  %46 = tail call i32 @fclose(ptr noundef nonnull %44)
  br label %47

47:                                               ; preds = %45, %43
  store ptr %32, ptr %5, align 8
  %48 = load ptr, ptr %4, align 8
  %.not50 = icmp eq ptr %48, null
  br i1 %.not50, label %50, label %49

49:                                               ; preds = %47
  tail call void @pfree(ptr noundef nonnull %48) #15
  br label %50

50:                                               ; preds = %49, %47
  store ptr %23, ptr %4, align 8
  br label %51

51:                                               ; preds = %41, %42, %19, %50, %18
  %.034 = phi i1 [ true, %18 ], [ true, %50 ], [ true, %19 ], [ false, %42 ], [ false, %41 ]
  ret i1 %.034
}